target datalayout = "e-m:e-p270:32:32-p271:32:32-p272:64:64-i64:64-i128:128-f80:128-n8:16:32:64-S128"
target triple = "x86_64-unknown-linux-gnu"

%"class.OpenImageIO_v2_6_0::Image_or_Const" = type { i32, ptr, %"class.OpenImageIO_v2_6_0::span" }
%"class.OpenImageIO_v2_6_0::span" = type { ptr, i64 }
%"struct.OpenImageIO_v2_6_0::ROI" = type { i32, i32, i32, i32, i32, i32, i32, i32 }
%"class.OpenImageIO_v2_6_0::ImageBuf" = type { %"class.std::unique_ptr" }
%"class.std::unique_ptr" = type { %"struct.std::__uniq_ptr_data" }
%"struct.std::__uniq_ptr_data" = type { %"class.std::__uniq_ptr_impl" }
%"class.std::__uniq_ptr_impl" = type { %"class.std::tuple" }
%"class.std::tuple" = type { %"struct.std::_Tuple_impl" }
%"struct.std::_Tuple_impl" = type { %"struct.std::_Tuple_impl.1", %"struct.std::_Head_base.2" }
%"struct.std::_Tuple_impl.1" = type { %"struct.std::_Head_base" }
%"struct.std::_Head_base" = type { ptr }
%"struct.std::_Head_base.2" = type { ptr }

@.str.12 = private unnamed_addr constant [26 x i8] c"ImageBufAlgo::sub() error\00", align 1

; Function Attrs: mustprogress uwtable
define void @_ZN18OpenImageIO_v2_6_012ImageBufAlgo3subENS_14Image_or_ConstES1_NS_3ROIEi(ptr noalias sret(%"class.OpenImageIO_v2_6_0::ImageBuf") align 8 %agg.result, ptr noundef byval(%"class.OpenImageIO_v2_6_0::Image_or_Const") align 8 %A, ptr noundef byval(%"class.OpenImageIO_v2_6_0::Image_or_Const") align 8 %B, ptr noundef byval(%"struct.OpenImageIO_v2_6_0::ROI") align 8 %roi, i32 noundef %nthreads) #6 personality ptr @__gxx_personality_v0 {
entry:
  %result.ptr = alloca ptr, align 8
  %nthreads.addr = alloca i32, align 4
  %nrvo = alloca i1, align 1
  %ok = alloca i8, align 1
  %agg.tmp = alloca %"class.OpenImageIO_v2_6_0::Image_or_Const", align 8
  %agg.tmp1 = alloca %"class.OpenImageIO_v2_6_0::Image_or_Const", align 8
  %agg.tmp2 = alloca %"struct.OpenImageIO_v2_6_0::ROI", align 8
  %exn.slot = alloca ptr, align 8
  %ehselector.slot = alloca i32, align 4
  store ptr %agg.result, ptr %result.ptr, align 8
  store i32 %nthreads, ptr %nthreads.addr, align 4
  store i1 false, ptr %nrvo, align 1
  call void @_ZN18OpenImageIO_v2_6_08ImageBufC1Ev(ptr noundef nonnull align 8 dereferenceable(16) %agg.result)
  call void @llvm.memcpy.p0.p0.i64(ptr align 8 %agg.tmp, ptr align 8 %A, i64 32, i1 false)
  call void @llvm.memcpy.p0.p0.i64(ptr align 8 %agg.tmp1, ptr align 8 %B, i64 32, i1 false)
  call void @llvm.memcpy.p0.p0.i64(ptr align 4 %agg.tmp2, ptr align 8 %roi, i64 32, i1 false)
  %0 = load i32, ptr %nthreads.addr, align 4
  %call = invoke noundef zeroext i1 @_ZN18OpenImageIO_v2_6_012ImageBufAlgo3subERNS_8ImageBufENS_14Image_or_ConstES3_NS_3ROIEi(ptr noundef nonnull align 8 dereferenceable(16) %agg.result, ptr noundef byval(%"class.OpenImageIO_v2_6_0::Image_or_Const") align 8 %agg.tmp, ptr noundef byval(%"class.OpenImageIO_v2_6_0::Image_or_Const") align 8 %agg.tmp1, ptr noundef byval(%"struct.OpenImageIO_v2_6_0::ROI") align 8 %agg.tmp2, i32 noundef %0)
          to label %invoke.cont unwind label %lpad

invoke.cont:                                      ; preds = %entry
  %frombool = zext i1 %call to i8
  store i8 %frombool, ptr %ok, align 1
  %1 = load i8, ptr %ok, align 1
  %tobool = trunc i8 %1 to i1
  br i1 %tobool, label %if.end, label %land.lhs.true

land.lhs.true:                                    ; preds = %invoke.cont
  %call4 = invoke noundef zeroext i1 @_ZNK18OpenImageIO_v2_6_08ImageBuf9has_errorEv(ptr noundef nonnull align 8 dereferenceable(16) %agg.result)
          to label %invoke.cont3 unwind label %lpad

invoke.cont3:                                     ; preds = %land.lhs.true
  br i1 %call4, label %if.end, label %if.then

if.then:                                          ; preds = %invoke.cont3
  invoke void @_ZNK18OpenImageIO_v2_6_08ImageBuf8errorfmtIJEEEvPKcDpRKT_(ptr noundef nonnull align 8 dereferenceable(16) %agg.result, ptr noundef @.str.12)
          to label %invoke.cont5 unwind label %lpad

invoke.cont5:                                     ; preds = %if.then
  br label %if.end

lpad:                                             ; preds = %if.then, %land.lhs.true, %entry
  %2 = landingpad { ptr, i32 }
          cleanup
  %3 = extractvalue { ptr, i32 } %2, 0
  store ptr %3, ptr %exn.slot, align 8
  %4 = extractvalue { ptr, i32 } %2, 1
  store i32 %4, ptr %ehselector.slot, align 4
  call void @_ZN18OpenImageIO_v2_6_08ImageBufD1Ev(ptr noundef nonnull align 8 dereferenceable(16) %agg.result) #3
  br label %eh.resume

if.end:                                           ; preds = %invoke.cont5, %invoke.cont3, %invoke.cont
  store i1 true, ptr %nrvo, align 1
  %nrvo.val = load i1, ptr %nrvo, align 1
  br i1 %nrvo.val, label %nrvo.skipdtor, label %nrvo.unused

nrvo.unused:                                      ; preds = %if.end
  call void @_ZN18OpenImageIO_v2_6_08ImageBufD1Ev(ptr noundef nonnull align 8 dereferenceable(16) %agg.result) #3
  br label %nrvo.skipdtor

nrvo.skipdtor:                                    ; preds = %nrvo.unused, %if.end
  ret void

eh.resume:                                        ; preds = %lpad
  %exn = load ptr, ptr %exn.slot, align 8
  %sel = load i32, ptr %ehselector.slot, align 4
  %lpad.val = insertvalue { ptr, i32 } poison, ptr %exn, 0
  %lpad.val6 = insertvalue { ptr, i32 } %lpad.val, i32 %sel, 1
  resume { ptr, i32 } %lpad.val6
}